; Function Attrs: mustprogress nofree norecurse nosync nounwind willreturn memory(argmem: readwrite) uwtable
define dso_local void @_ZN21btConvexInternalShape15setLocalScalingERK9btVector3(ptr noundef nonnull writeonly align 8 captures(none) dereferenceable(72) initializes((32, 48)) %0, ptr noundef nonnull readonly align 4 captures(none) dereferenceable(16) %1) unnamed_addr #3 align 2 {
  %3 = load float, ptr %1, align 4, !tbaa !7
  %4 = tail call noundef float @llvm.fabs.f32(float %3)
  %5 = getelementptr inbounds nuw i8, ptr %1, i64 4
  %6 = load float, ptr %5, align 4, !tbaa !7
  %7 = tail call noundef float @llvm.fabs.f32(float %6)
  %8 = getelementptr inbounds nuw i8, ptr %1, i64 8
  %9 = load float, ptr %8, align 4, !tbaa !7
  %10 = tail call noundef float @llvm.fabs.f32(float %9)
  %.sroa.0.0.vec.insert.i = insertelement <2 x float> poison, float %4, i64 0
  %.sroa.0.4.vec.insert.i = insertelement <2 x float> %.sroa.0.0.vec.insert.i, float %7, i64 1
  %.sroa.3.12.vec.insert.i = insertelement <2 x float> <float poison, float 0.000000e+00>, float %10, i64 0
  %11 = getelementptr inbounds nuw i8, ptr %0, i64 32
  store <2 x float> %.sroa.0.4.vec.insert.i, ptr %11, align 8
  %.sroa.4.0..sroa_idx = getelementptr inbounds nuw i8, ptr %0, i64 40
  store <2 x float> %.sroa.3.12.vec.insert.i, ptr %.sroa.4.0..sroa_idx, align 8, !tbaa !17
  ret void
}